; Function Attrs: mustprogress nofree norecurse nosync nounwind memory(readwrite, inaccessiblemem: none) uwtable
define internal void @"_ZNSt17_Function_handlerIFvRKN2cv5RangeEEZNKS0_8colormap8ColorMapclERKNS0_11_InputArrayERKNS0_12_OutputArrayEE3$_1E9_M_invokeERKSt9_Any_dataS3_"(ptr nocapture noundef nonnull readonly align 8 dereferenceable(16) %0, ptr nocapture noundef nonnull readonly align 4 dereferenceable(8) %1) #11 align 2 {
  %.val = load ptr, ptr %0, align 8
  %3 = load i32, ptr %1, align 4
  %4 = getelementptr inbounds i8, ptr %1, i64 4
  %5 = load i32, ptr %4, align 4
  %6 = icmp slt i32 %3, %5
  br i1 %6, label %.lr.ph18.i.i.i, label %"_ZSt10__invoke_rIvRZNK2cv8colormap8ColorMapclERKNS0_11_InputArrayERKNS0_12_OutputArrayEE3$_1JRKNS0_5RangeEEENSt9enable_ifIXsr6__and_ISt7is_voidIT_ESt14__is_invocableIT0_JDpT1_EEEE5valueESG_E4typeEOSJ_DpOSK_.exit"

.lr.ph18.i.i.i:                                   ; preds = %2
  %7 = getelementptr inbounds i8, ptr %.val, i64 8
  %8 = getelementptr inbounds i8, ptr %.val, i64 16
  %9 = getelementptr inbounds i8, ptr %.val, i64 24
  %10 = load i32, ptr %.val, align 8
  %11 = icmp sgt i32 %10, 0
  br i1 %11, label %.lr.ph18.split.preheader.i.i.i, label %"_ZSt10__invoke_rIvRZNK2cv8colormap8ColorMapclERKNS0_11_InputArrayERKNS0_12_OutputArrayEE3$_1JRKNS0_5RangeEEENSt9enable_ifIXsr6__and_ISt7is_voidIT_ESt14__is_invocableIT0_JDpT1_EEEE5valueESG_E4typeEOSJ_DpOSK_.exit"

.lr.ph18.split.preheader.i.i.i:                   ; preds = %.lr.ph18.i.i.i
  %12 = sext i32 %3 to i64
  br label %.lr.ph18.split.i.i.i

.lr.ph18.split.i.i.i:                             ; preds = %._crit_edge.i.i.i, %.lr.ph18.split.preheader.i.i.i
  %13 = phi i32 [ %5, %.lr.ph18.split.preheader.i.i.i ], [ %42, %._crit_edge.i.i.i ]
  %14 = phi i32 [ %10, %.lr.ph18.split.preheader.i.i.i ], [ %43, %._crit_edge.i.i.i ]
  %indvars.iv.i.i.i = phi i64 [ %12, %.lr.ph18.split.preheader.i.i.i ], [ %indvars.iv.next.i.i.i, %._crit_edge.i.i.i ]
  %15 = icmp sgt i32 %14, 0
  br i1 %15, label %.lr.ph.preheader.i.i.i, label %._crit_edge.i.i.i

.lr.ph.preheader.i.i.i:                           ; preds = %.lr.ph18.split.i.i.i
  %16 = load ptr, ptr %8, align 8
  %17 = getelementptr inbounds i8, ptr %16, i64 16
  %18 = load ptr, ptr %17, align 8
  %19 = getelementptr inbounds i8, ptr %16, i64 72
  %20 = load ptr, ptr %19, align 8
  %21 = load i64, ptr %20, align 8
  %22 = mul i64 %21, %indvars.iv.i.i.i
  %23 = getelementptr inbounds i8, ptr %18, i64 %22
  %24 = load ptr, ptr %7, align 8
  %25 = getelementptr inbounds i8, ptr %24, i64 16
  %26 = load ptr, ptr %25, align 8
  %27 = getelementptr inbounds i8, ptr %24, i64 72
  %28 = load ptr, ptr %27, align 8
  %29 = load i64, ptr %28, align 8
  %30 = mul i64 %29, %indvars.iv.i.i.i
  %31 = getelementptr inbounds i8, ptr %26, i64 %30
  br label %.lr.ph.i.i.i

.lr.ph.i.i.i:                                     ; preds = %.lr.ph.i.i.i, %.lr.ph.preheader.i.i.i
  %.015.i.i.i = phi i32 [ %39, %.lr.ph.i.i.i ], [ 0, %.lr.ph.preheader.i.i.i ]
  %.01014.i.i.i = phi ptr [ %38, %.lr.ph.i.i.i ], [ %23, %.lr.ph.preheader.i.i.i ]
  %.01113.i.i.i = phi ptr [ %34, %.lr.ph.i.i.i ], [ %31, %.lr.ph.preheader.i.i.i ]
  %32 = load ptr, ptr %9, align 8
  %33 = load ptr, ptr %32, align 8
  %34 = getelementptr inbounds i8, ptr %.01113.i.i.i, i64 1
  %35 = load i8, ptr %.01113.i.i.i, align 1
  %36 = zext i8 %35 to i64
  %37 = getelementptr inbounds %"class.cv::Vec.4", ptr %33, i64 %36
  %38 = getelementptr inbounds i8, ptr %.01014.i.i.i, i64 3
  tail call void @llvm.memcpy.p0.p0.i64(ptr noundef nonnull align 1 dereferenceable(3) %.01014.i.i.i, ptr noundef nonnull align 1 dereferenceable(3) %37, i64 3, i1 false)
  %39 = add nuw nsw i32 %.015.i.i.i, 1
  %40 = load i32, ptr %.val, align 8
  %41 = icmp slt i32 %39, %40
  br i1 %41, label %.lr.ph.i.i.i, label %._crit_edge.loopexit.i.i.i, !llvm.loop !334

._crit_edge.loopexit.i.i.i:                       ; preds = %.lr.ph.i.i.i
  %.pre.i.i.i = load i32, ptr %4, align 4
  br label %._crit_edge.i.i.i

._crit_edge.i.i.i:                                ; preds = %._crit_edge.loopexit.i.i.i, %.lr.ph18.split.i.i.i
  %42 = phi i32 [ %.pre.i.i.i, %._crit_edge.loopexit.i.i.i ], [ %13, %.lr.ph18.split.i.i.i ]
  %43 = phi i32 [ %40, %._crit_edge.loopexit.i.i.i ], [ %14, %.lr.ph18.split.i.i.i ]
  %indvars.iv.next.i.i.i = add nsw i64 %indvars.iv.i.i.i, 1
  %44 = sext i32 %42 to i64
  %45 = icmp slt i64 %indvars.iv.next.i.i.i, %44
  br i1 %45, label %.lr.ph18.split.i.i.i, label %"_ZSt10__invoke_rIvRZNK2cv8colormap8ColorMapclERKNS0_11_InputArrayERKNS0_12_OutputArrayEE3$_1JRKNS0_5RangeEEENSt9enable_ifIXsr6__and_ISt7is_voidIT_ESt14__is_invocableIT0_JDpT1_EEEE5valueESG_E4typeEOSJ_DpOSK_.exit", !llvm.loop !335

"_ZSt10__invoke_rIvRZNK2cv8colormap8ColorMapclERKNS0_11_InputArrayERKNS0_12_OutputArrayEE3$_1JRKNS0_5RangeEEENSt9enable_ifIXsr6__and_ISt7is_voidIT_ESt14__is_invocableIT0_JDpT1_EEEE5valueESG_E4typeEOSJ_DpOSK_.exit": ; preds = %._crit_edge.i.i.i, %2, %.lr.ph18.i.i.i
  ret void
}